target datalayout = "e-m:e-p270:32:32-p271:32:32-p272:64:64-i64:64-i128:128-f80:128-n8:16:32:64-S128"
target triple = "x86_64-pc-linux-gnu"

%"struct.llvm::detail::PunnedPointer.3" = type { [8 x i8] }
%"class.clang::ValueDecl" = type { %"class.clang::NamedDecl", %"class.clang::QualType" }
%"class.clang::NamedDecl" = type { %"class.clang::Decl.base", %"class.clang::DeclarationName" }
%"class.clang::Decl.base" = type <{ ptr, %"class.llvm::PointerIntPair", %"class.llvm::PointerUnion", %"class.clang::SourceLocation", i32, i8 }>
%"class.llvm::PointerIntPair" = type { %"struct.llvm::detail::PunnedPointer" }
%"struct.llvm::detail::PunnedPointer" = type { [8 x i8] }
%"class.llvm::PointerUnion" = type { %"class.llvm::pointer_union_detail::PointerUnionMembers" }
%"class.llvm::pointer_union_detail::PointerUnionMembers" = type { %"class.llvm::pointer_union_detail::PointerUnionMembers.0" }
%"class.llvm::pointer_union_detail::PointerUnionMembers.0" = type { %"class.llvm::pointer_union_detail::PointerUnionMembers.1" }
%"class.llvm::pointer_union_detail::PointerUnionMembers.1" = type { %"class.llvm::PointerIntPair.2" }
%"class.llvm::PointerIntPair.2" = type { %"struct.llvm::detail::PunnedPointer.3" }
%"class.clang::DeclarationName" = type { i64 }
%"class.clang::QualType" = type { %"class.llvm::PointerIntPair.4" }
%"class.llvm::PointerIntPair.4" = type { %"struct.llvm::detail::PunnedPointer.5" }
%"struct.llvm::detail::PunnedPointer.5" = type { [8 x i8] }
%"class.clang::SourceLocation" = type { i32 }
%"class.clang::ASTDeclWriter" = type <{ ptr, ptr, %"class.clang::ASTRecordWriter", i32, i32, i8, [7 x i8] }>
%"class.clang::ASTRecordWriter" = type { %"class.clang::serialization::DataStreamBasicWriter", ptr, ptr, %"class.llvm::SmallVector", %"class.llvm::SmallVector.32" }
%"class.clang::serialization::DataStreamBasicWriter" = type { %"class.clang::serialization::BasicWriterBase" }
%"class.clang::serialization::BasicWriterBase" = type { ptr }
%"class.llvm::SmallVector" = type { %"class.llvm::SmallVectorImpl", %"struct.llvm::SmallVectorStorage" }
%"class.llvm::SmallVectorImpl" = type { %"class.llvm::SmallVectorTemplateBase" }
%"class.llvm::SmallVectorTemplateBase" = type { %"class.llvm::SmallVectorTemplateCommon" }
%"class.llvm::SmallVectorTemplateCommon" = type { %"class.llvm::SmallVectorBase" }
%"class.llvm::SmallVectorBase" = type { ptr, i32, i32 }
%"struct.llvm::SmallVectorStorage" = type { [128 x i8] }
%"class.llvm::SmallVector.32" = type { %"class.llvm::SmallVectorImpl.33", %"struct.llvm::SmallVectorStorage.36" }
%"class.llvm::SmallVectorImpl.33" = type { %"class.llvm::SmallVectorTemplateBase.34" }
%"class.llvm::SmallVectorTemplateBase.34" = type { %"class.llvm::SmallVectorTemplateCommon.35" }
%"class.llvm::SmallVectorTemplateCommon.35" = type { %"class.llvm::SmallVectorBase" }
%"struct.llvm::SmallVectorStorage.36" = type { [32 x i8] }
%"class.clang::NestedNameSpecifierLoc" = type { ptr, ptr }
%"class.clang::DeclarationNameLoc" = type { %union.anon.24 }
%union.anon.24 = type { %"struct.clang::DeclarationNameLoc::NT" }
%"struct.clang::DeclarationNameLoc::NT" = type { ptr }
%"class.clang::UnresolvedUsingValueDecl" = type { %"class.clang::ValueDecl", %"class.clang::SourceLocation", %"class.clang::SourceLocation", %"class.clang::NestedNameSpecifierLoc", %"class.clang::DeclarationNameLoc" }

; Function Attrs: mustprogress nounwind uwtable
define linkonce_odr hidden void @_ZN5clang15ASTRecordWriter10AddTypeRefENS_8QualTypeE(ptr noundef nonnull align 8 dereferenceable(216) %0, i64 %1) #0 comdat align 2 {
  %3 = alloca %"class.clang::QualType", align 8
  %4 = alloca ptr, align 8
  %5 = alloca %"class.clang::QualType", align 8
  %6 = getelementptr inbounds nuw %"class.clang::QualType", ptr %3, i32 0, i32 0
  %7 = getelementptr inbounds nuw %"class.llvm::PointerIntPair.4", ptr %6, i32 0, i32 0
  %8 = getelementptr inbounds nuw %"struct.llvm::detail::PunnedPointer.5", ptr %7, i32 0, i32 0
  store i64 %1, ptr %8, align 8
  store ptr %0, ptr %4, align 8
  %9 = load ptr, ptr %4, align 8
  %10 = getelementptr inbounds nuw %"class.clang::ASTRecordWriter", ptr %9, i32 0, i32 1
  %11 = load ptr, ptr %10, align 8
  call void @llvm.memcpy.p0.p0.i64(ptr align 8 %5, ptr align 8 %3, i64 8, i1 false)
  %12 = getelementptr inbounds nuw %"class.clang::ASTRecordWriter", ptr %9, i32 0, i32 2
  %13 = load ptr, ptr %12, align 8
  %14 = getelementptr inbounds nuw %"class.clang::QualType", ptr %5, i32 0, i32 0
  %15 = getelementptr inbounds nuw %"class.llvm::PointerIntPair.4", ptr %14, i32 0, i32 0
  %16 = getelementptr inbounds nuw %"struct.llvm::detail::PunnedPointer.5", ptr %15, i32 0, i32 0
  %17 = load i64, ptr %16, align 8
  call void @_ZN5clang9ASTWriter10AddTypeRefENS_8QualTypeERN4llvm15SmallVectorImplImEE(ptr noundef nonnull align 8 dereferenceable(3340) %11, i64 %17, ptr noundef nonnull align 8 dereferenceable(16) %13)
  ret void
}

; Function Attrs: mustprogress nounwind uwtable
define linkonce_odr hidden i64 @_ZNK5clang9ValueDecl7getTypeEv(ptr noundef nonnull align 8 dereferenceable(56) %0) #0 comdat align 2 {
  %2 = alloca %"class.clang::QualType", align 8
  %3 = alloca ptr, align 8
  store ptr %0, ptr %3, align 8
  %4 = load ptr, ptr %3, align 8
  %5 = getelementptr inbounds nuw %"class.clang::ValueDecl", ptr %4, i32 0, i32 1
  call void @llvm.memcpy.p0.p0.i64(ptr align 8 %2, ptr align 8 %5, i64 8, i1 false)
  %6 = getelementptr inbounds nuw %"class.clang::QualType", ptr %2, i32 0, i32 0
  %7 = getelementptr inbounds nuw %"class.llvm::PointerIntPair.4", ptr %6, i32 0, i32 0
  %8 = getelementptr inbounds nuw %"struct.llvm::detail::PunnedPointer.5", ptr %7, i32 0, i32 0
  %9 = load i64, ptr %8, align 8
  ret i64 %9
}

; Function Attrs: mustprogress nounwind uwtable
define linkonce_odr hidden i32 @_ZNK5clang24UnresolvedUsingValueDecl14getEllipsisLocEv(ptr noundef nonnull align 8 dereferenceable(88) %0) #0 comdat align 2 {
  %2 = alloca %"class.clang::SourceLocation", align 4
  %3 = alloca ptr, align 8
  store ptr %0, ptr %3, align 8
  %4 = load ptr, ptr %3, align 8
  %5 = getelementptr inbounds nuw %"class.clang::UnresolvedUsingValueDecl", ptr %4, i32 0, i32 2
  call void @llvm.memcpy.p0.p0.i64(ptr align 4 %2, ptr align 4 %5, i64 4, i1 false)
  %6 = getelementptr inbounds nuw %"class.clang::SourceLocation", ptr %2, i32 0, i32 0
  %7 = load i32, ptr %6, align 4
  ret i32 %7
}

; Function Attrs: mustprogress nounwind uwtable
define linkonce_odr hidden i64 @_ZNK5clang9NamedDecl11getDeclNameEv(ptr noundef nonnull align 8 dereferenceable(48) %0) #0 comdat align 2 {
  %2 = alloca %"class.clang::DeclarationName", align 8
  %3 = alloca ptr, align 8
  store ptr %0, ptr %3, align 8
  %4 = load ptr, ptr %3, align 8
  %5 = getelementptr inbounds nuw %"class.clang::NamedDecl", ptr %4, i32 0, i32 1
  call void @llvm.memcpy.p0.p0.i64(ptr align 8 %2, ptr align 8 %5, i64 8, i1 false)
  %6 = getelementptr inbounds nuw %"class.clang::DeclarationName", ptr %2, i32 0, i32 0
  %7 = load i64, ptr %6, align 8
  ret i64 %7
}

; Function Attrs: mustprogress nounwind uwtable
define linkonce_odr hidden { ptr, ptr } @_ZNK5clang24UnresolvedUsingValueDecl15getQualifierLocEv(ptr noundef nonnull align 8 dereferenceable(88) %0) #0 comdat align 2 {
  %2 = alloca %"class.clang::NestedNameSpecifierLoc", align 8
  %3 = alloca ptr, align 8
  store ptr %0, ptr %3, align 8
  %4 = load ptr, ptr %3, align 8
  %5 = getelementptr inbounds nuw %"class.clang::UnresolvedUsingValueDecl", ptr %4, i32 0, i32 3
  call void @llvm.memcpy.p0.p0.i64(ptr align 8 %2, ptr align 8 %5, i64 16, i1 false)
  %6 = load { ptr, ptr }, ptr %2, align 8
  ret { ptr, ptr } %6
}

; Function Attrs: mustprogress nounwind uwtable
define linkonce_odr hidden void @_ZN5clang15ASTRecordWriter17AddSourceLocationENS_14SourceLocationEPNS_22SourceLocationSequenceE(ptr noundef nonnull align 8 dereferenceable(216) %0, i32 %1, ptr noundef %2) #0 comdat align 2 {
  %4 = alloca %"class.clang::SourceLocation", align 4
  %5 = alloca ptr, align 8
  %6 = alloca ptr, align 8
  %7 = alloca %"class.clang::SourceLocation", align 4
  %8 = getelementptr inbounds nuw %"class.clang::SourceLocation", ptr %4, i32 0, i32 0
  store i32 %1, ptr %8, align 4
  store ptr %0, ptr %5, align 8
  store ptr %2, ptr %6, align 8
  %9 = load ptr, ptr %5, align 8
  %10 = getelementptr inbounds nuw %"class.clang::ASTRecordWriter", ptr %9, i32 0, i32 1
  %11 = load ptr, ptr %10, align 8
  call void @llvm.memcpy.p0.p0.i64(ptr align 4 %7, ptr align 4 %4, i64 4, i1 false)
  %12 = getelementptr inbounds nuw %"class.clang::ASTRecordWriter", ptr %9, i32 0, i32 2
  %13 = load ptr, ptr %12, align 8
  %14 = load ptr, ptr %6, align 8
  %15 = getelementptr inbounds nuw %"class.clang::SourceLocation", ptr %7, i32 0, i32 0
  %16 = load i32, ptr %15, align 4
  call void @_ZN5clang9ASTWriter17AddSourceLocationENS_14SourceLocationERN4llvm15SmallVectorImplImEEPNS_22SourceLocationSequenceE(ptr noundef nonnull align 8 dereferenceable(3340) %11, i32 %16, ptr noundef nonnull align 8 dereferenceable(16) %13, ptr noundef %14)
  ret void
}

; Function Attrs: mustprogress nounwind uwtable
define linkonce_odr hidden i32 @_ZNK5clang24UnresolvedUsingValueDecl11getUsingLocEv(ptr noundef nonnull align 8 dereferenceable(88) %0) #0 comdat align 2 {
  %2 = alloca %"class.clang::SourceLocation", align 4
  %3 = alloca ptr, align 8
  store ptr %0, ptr %3, align 8
  %4 = load ptr, ptr %3, align 8
  %5 = getelementptr inbounds nuw %"class.clang::UnresolvedUsingValueDecl", ptr %4, i32 0, i32 1
  call void @llvm.memcpy.p0.p0.i64(ptr align 4 %2, ptr align 8 %5, i64 4, i1 false)
  %6 = getelementptr inbounds nuw %"class.clang::SourceLocation", ptr %2, i32 0, i32 0
  %7 = load i32, ptr %6, align 4
  ret i32 %7
}

; Function Attrs: mustprogress nounwind uwtable
define dso_local void @_ZN5clang13ASTDeclWriter14VisitValueDeclEPNS_9ValueDeclE(ptr noundef nonnull align 8 dereferenceable(241) %0, ptr noundef %1) #0 align 2 {
  %3 = alloca ptr, align 8
  %4 = alloca ptr, align 8
  %5 = alloca %"class.clang::QualType", align 8
  store ptr %0, ptr %3, align 8
  store ptr %1, ptr %4, align 8
  %6 = load ptr, ptr %3, align 8
  %7 = load ptr, ptr %4, align 8
  call void @_ZN5clang13ASTDeclWriter14VisitNamedDeclEPNS_9NamedDeclE(ptr noundef nonnull align 8 dereferenceable(241) %6, ptr noundef %7)
  %8 = getelementptr inbounds nuw %"class.clang::ASTDeclWriter", ptr %6, i32 0, i32 2
  %9 = load ptr, ptr %4, align 8
  %10 = call i64 @_ZNK5clang9ValueDecl7getTypeEv(ptr noundef nonnull align 8 dereferenceable(56) %9)
  %11 = getelementptr inbounds nuw %"class.clang::QualType", ptr %5, i32 0, i32 0
  %12 = getelementptr inbounds nuw %"class.llvm::PointerIntPair.4", ptr %11, i32 0, i32 0
  %13 = getelementptr inbounds nuw %"struct.llvm::detail::PunnedPointer.5", ptr %12, i32 0, i32 0
  store i64 %10, ptr %13, align 8
  %14 = getelementptr inbounds nuw %"class.clang::QualType", ptr %5, i32 0, i32 0
  %15 = getelementptr inbounds nuw %"class.llvm::PointerIntPair.4", ptr %14, i32 0, i32 0
  %16 = getelementptr inbounds nuw %"struct.llvm::detail::PunnedPointer.5", ptr %15, i32 0, i32 0
  %17 = load i64, ptr %16, align 8
  call void @_ZN5clang15ASTRecordWriter10AddTypeRefENS_8QualTypeE(ptr noundef nonnull align 8 dereferenceable(216) %8, i64 %17)
  ret void
}

; Function Attrs: mustprogress nounwind uwtable
define dso_local void @_ZN5clang13ASTDeclWriter29VisitUnresolvedUsingValueDeclEPNS_24UnresolvedUsingValueDeclE(ptr noundef nonnull align 8 dereferenceable(241) %0, ptr noundef %1) #0 align 2 {
  %3 = alloca ptr, align 8
  %4 = alloca ptr, align 8
  %5 = alloca %"class.clang::SourceLocation", align 4
  %6 = alloca %"class.clang::NestedNameSpecifierLoc", align 8
  %7 = alloca %"class.clang::DeclarationName", align 8
  %8 = alloca %"class.clang::SourceLocation", align 4
  store ptr %0, ptr %3, align 8
  store ptr %1, ptr %4, align 8
  %9 = load ptr, ptr %3, align 8
  %10 = load ptr, ptr %4, align 8
  call void @_ZN5clang13ASTDeclWriter14VisitValueDeclEPNS_9ValueDeclE(ptr noundef nonnull align 8 dereferenceable(241) %9, ptr noundef %10)
  %11 = getelementptr inbounds nuw %"class.clang::ASTDeclWriter", ptr %9, i32 0, i32 2
  %12 = load ptr, ptr %4, align 8
  %13 = call i32 @_ZNK5clang24UnresolvedUsingValueDecl11getUsingLocEv(ptr noundef nonnull align 8 dereferenceable(88) %12)
  %14 = getelementptr inbounds nuw %"class.clang::SourceLocation", ptr %5, i32 0, i32 0
  store i32 %13, ptr %14, align 4
  %15 = getelementptr inbounds nuw %"class.clang::SourceLocation", ptr %5, i32 0, i32 0
  %16 = load i32, ptr %15, align 4
  call void @_ZN5clang15ASTRecordWriter17AddSourceLocationENS_14SourceLocationEPNS_22SourceLocationSequenceE(ptr noundef nonnull align 8 dereferenceable(216) %11, i32 %16, ptr noundef null)
  %17 = getelementptr inbounds nuw %"class.clang::ASTDeclWriter", ptr %9, i32 0, i32 2
  %18 = load ptr, ptr %4, align 8
  %19 = call { ptr, ptr } @_ZNK5clang24UnresolvedUsingValueDecl15getQualifierLocEv(ptr noundef nonnull align 8 dereferenceable(88) %18)
  %20 = getelementptr inbounds nuw { ptr, ptr }, ptr %6, i32 0, i32 0
  %21 = extractvalue { ptr, ptr } %19, 0
  store ptr %21, ptr %20, align 8
  %22 = getelementptr inbounds nuw { ptr, ptr }, ptr %6, i32 0, i32 1
  %23 = extractvalue { ptr, ptr } %19, 1
  store ptr %23, ptr %22, align 8
  %24 = getelementptr inbounds nuw { ptr, ptr }, ptr %6, i32 0, i32 0
  %25 = load ptr, ptr %24, align 8
  %26 = getelementptr inbounds nuw { ptr, ptr }, ptr %6, i32 0, i32 1
  %27 = load ptr, ptr %26, align 8
  call void @_ZN5clang15ASTRecordWriter25AddNestedNameSpecifierLocENS_22NestedNameSpecifierLocE(ptr noundef nonnull align 8 dereferenceable(216) %17, ptr %25, ptr %27)
  %28 = getelementptr inbounds nuw %"class.clang::ASTDeclWriter", ptr %9, i32 0, i32 2
  %29 = load ptr, ptr %4, align 8
  %30 = getelementptr inbounds nuw %"class.clang::UnresolvedUsingValueDecl", ptr %29, i32 0, i32 4
  %31 = load ptr, ptr %4, align 8
  %32 = call i64 @_ZNK5clang9NamedDecl11getDeclNameEv(ptr noundef nonnull align 8 dereferenceable(48) %31)
  %33 = getelementptr inbounds nuw %"class.clang::DeclarationName", ptr %7, i32 0, i32 0
  store i64 %32, ptr %33, align 8
  %34 = getelementptr inbounds nuw %"class.clang::DeclarationName", ptr %7, i32 0, i32 0
  %35 = load i64, ptr %34, align 8
  call void @_ZN5clang15ASTRecordWriter21AddDeclarationNameLocERKNS_18DeclarationNameLocENS_15DeclarationNameE(ptr noundef nonnull align 8 dereferenceable(216) %28, ptr noundef nonnull align 8 dereferenceable(8) %30, i64 %35)
  %36 = getelementptr inbounds nuw %"class.clang::ASTDeclWriter", ptr %9, i32 0, i32 2
  %37 = load ptr, ptr %4, align 8
  %38 = call i32 @_ZNK5clang24UnresolvedUsingValueDecl14getEllipsisLocEv(ptr noundef nonnull align 8 dereferenceable(88) %37)
  %39 = getelementptr inbounds nuw %"class.clang::SourceLocation", ptr %8, i32 0, i32 0
  store i32 %38, ptr %39, align 4
  %40 = getelementptr inbounds nuw %"class.clang::SourceLocation", ptr %8, i32 0, i32 0
  %41 = load i32, ptr %40, align 4
  call void @_ZN5clang15ASTRecordWriter17AddSourceLocationENS_14SourceLocationEPNS_22SourceLocationSequenceE(ptr noundef nonnull align 8 dereferenceable(216) %36, i32 %41, ptr noundef null)
  %42 = getelementptr inbounds nuw %"class.clang::ASTDeclWriter", ptr %9, i32 0, i32 3
  store i32 92, ptr %42, align 8
  ret void
}