; Function Attrs: mustprogress nounwind uwtable
define dso_local void @_ZN5clang13ASTDeclWriter29VisitUnresolvedUsingValueDeclEPNS_24UnresolvedUsingValueDeclE(ptr noundef nonnull align 8 dereferenceable(241) %0, ptr noundef nonnull %1) local_unnamed_addr #0 align 2 {
  tail call void @_ZN5clang13ASTDeclWriter14VisitNamedDeclEPNS_9NamedDeclE(ptr noundef nonnull align 8 dereferenceable(241) %0, ptr noundef nonnull %1)
  %3 = getelementptr inbounds nuw i8, ptr %1, i64 48
  %.sroa.0.0.copyload.i.i = load i64, ptr %3, align 8
  %4 = getelementptr inbounds nuw i8, ptr %0, i64 24
  %5 = load ptr, ptr %4, align 8
  %6 = getelementptr inbounds nuw i8, ptr %0, i64 32
  %7 = load ptr, ptr %6, align 8
  tail call void @_ZN5clang9ASTWriter10AddTypeRefENS_8QualTypeERN4llvm15SmallVectorImplImEE(ptr noundef nonnull align 8 dereferenceable(3340) %5, i64 %.sroa.0.0.copyload.i.i, ptr noundef nonnull align 8 dereferenceable(16) %7) #19
  %8 = getelementptr inbounds nuw i8, ptr %0, i64 16
  %9 = getelementptr inbounds nuw i8, ptr %1, i64 56
  %.sroa.0.0.copyload.i = load i32, ptr %9, align 8
  %10 = load ptr, ptr %4, align 8
  %11 = load ptr, ptr %6, align 8
  tail call void @_ZN5clang9ASTWriter17AddSourceLocationENS_14SourceLocationERN4llvm15SmallVectorImplImEEPNS_22SourceLocationSequenceE(ptr noundef nonnull align 8 dereferenceable(3340) %10, i32 %.sroa.0.0.copyload.i, ptr noundef nonnull align 8 dereferenceable(16) %11, ptr noundef null) #19
  %12 = getelementptr inbounds nuw i8, ptr %1, i64 64
  %.sroa.0.0.copyload.i10 = load ptr, ptr %12, align 8
  %.sroa.2.0..sroa_idx.i = getelementptr inbounds nuw i8, ptr %1, i64 72
  %.sroa.2.0.copyload.i = load ptr, ptr %.sroa.2.0..sroa_idx.i, align 8
  tail call void @_ZN5clang15ASTRecordWriter25AddNestedNameSpecifierLocENS_22NestedNameSpecifierLocE(ptr noundef nonnull align 8 dereferenceable(216) %8, ptr %.sroa.0.0.copyload.i10, ptr %.sroa.2.0.copyload.i) #19
  %13 = getelementptr inbounds nuw i8, ptr %1, i64 80
  %14 = getelementptr inbounds nuw i8, ptr %1, i64 40
  %.sroa.0.0.copyload.i11 = load i64, ptr %14, align 8
  tail call void @_ZN5clang15ASTRecordWriter21AddDeclarationNameLocERKNS_18DeclarationNameLocENS_15DeclarationNameE(ptr noundef nonnull align 8 dereferenceable(216) %8, ptr noundef nonnull align 8 dereferenceable(8) %13, i64 %.sroa.0.0.copyload.i11) #19
  %15 = getelementptr inbounds nuw i8, ptr %1, i64 60
  %.sroa.0.0.copyload.i12 = load i32, ptr %15, align 4
  %16 = load ptr, ptr %4, align 8
  %17 = load ptr, ptr %6, align 8
  tail call void @_ZN5clang9ASTWriter17AddSourceLocationENS_14SourceLocationERN4llvm15SmallVectorImplImEEPNS_22SourceLocationSequenceE(ptr noundef nonnull align 8 dereferenceable(3340) %16, i32 %.sroa.0.0.copyload.i12, ptr noundef nonnull align 8 dereferenceable(16) %17, ptr noundef null) #19
  %18 = getelementptr inbounds nuw i8, ptr %0, i64 232
  store i32 92, ptr %18, align 8
  ret void
}